target datalayout = "e-m:e-p270:32:32-p271:32:32-p272:64:64-i64:64-i128:128-f80:128-n8:16:32:64-S128"
target triple = "x86_64-pc-linux-gnu"

@_ZN12PosixSignals9SR_signumE = hidden global i32 12, align 4
@_ZL13check_signals = internal global i8 1, align 1
@ReduceSignalUsage = external global i8, align 1
@.str = private unnamed_addr constant [29 x i8] c"Consider using jsig library.\00", align 1

; Function Attrs: mustprogress nounwind uwtable
define hidden void @_ZN2os19run_periodic_checksEP12outputStream(ptr noundef %0) #1 align 2 {
  %2 = alloca ptr, align 8
  %3 = alloca i8, align 1
  %4 = alloca [2000 x i8], align 16
  store ptr %0, ptr %2, align 8
  %5 = load i8, ptr @_ZL13check_signals, align 1
  %6 = trunc i8 %5 to i1
  %7 = zext i1 %6 to i32
  %8 = icmp eq i32 %7, 0
  br i1 %8, label %9, label %10

9:                                                ; preds = %1
  br label %94

10:                                               ; preds = %1
  store i8 0, ptr %3, align 1
  %11 = call noundef zeroext i1 @_ZL20check_signal_handleri(i32 noundef 11)
  %12 = zext i1 %11 to i32
  %13 = load i8, ptr %3, align 1
  %14 = trunc i8 %13 to i1
  %15 = zext i1 %14 to i32
  %16 = or i32 %15, %12
  %17 = icmp ne i32 %16, 0
  %18 = zext i1 %17 to i8
  store i8 %18, ptr %3, align 1
  %19 = call noundef zeroext i1 @_ZL20check_signal_handleri(i32 noundef 4)
  %20 = zext i1 %19 to i32
  %21 = load i8, ptr %3, align 1
  %22 = trunc i8 %21 to i1
  %23 = zext i1 %22 to i32
  %24 = or i32 %23, %20
  %25 = icmp ne i32 %24, 0
  %26 = zext i1 %25 to i8
  store i8 %26, ptr %3, align 1
  %27 = call noundef zeroext i1 @_ZL20check_signal_handleri(i32 noundef 8)
  %28 = zext i1 %27 to i32
  %29 = load i8, ptr %3, align 1
  %30 = trunc i8 %29 to i1
  %31 = zext i1 %30 to i32
  %32 = or i32 %31, %28
  %33 = icmp ne i32 %32, 0
  %34 = zext i1 %33 to i8
  store i8 %34, ptr %3, align 1
  %35 = call noundef zeroext i1 @_ZL20check_signal_handleri(i32 noundef 7)
  %36 = zext i1 %35 to i32
  %37 = load i8, ptr %3, align 1
  %38 = trunc i8 %37 to i1
  %39 = zext i1 %38 to i32
  %40 = or i32 %39, %36
  %41 = icmp ne i32 %40, 0
  %42 = zext i1 %41 to i8
  store i8 %42, ptr %3, align 1
  %43 = load i8, ptr @ReduceSignalUsage, align 1
  %44 = trunc i8 %43 to i1
  br i1 %44, label %78, label %45

45:                                               ; preds = %10
  %46 = call noundef zeroext i1 @_ZL20check_signal_handleri(i32 noundef 1)
  %47 = zext i1 %46 to i32
  %48 = load i8, ptr %3, align 1
  %49 = trunc i8 %48 to i1
  %50 = zext i1 %49 to i32
  %51 = or i32 %50, %47
  %52 = icmp ne i32 %51, 0
  %53 = zext i1 %52 to i8
  store i8 %53, ptr %3, align 1
  %54 = call noundef zeroext i1 @_ZL20check_signal_handleri(i32 noundef 2)
  %55 = zext i1 %54 to i32
  %56 = load i8, ptr %3, align 1
  %57 = trunc i8 %56 to i1
  %58 = zext i1 %57 to i32
  %59 = or i32 %58, %55
  %60 = icmp ne i32 %59, 0
  %61 = zext i1 %60 to i8
  store i8 %61, ptr %3, align 1
  %62 = call noundef zeroext i1 @_ZL20check_signal_handleri(i32 noundef 15)
  %63 = zext i1 %62 to i32
  %64 = load i8, ptr %3, align 1
  %65 = trunc i8 %64 to i1
  %66 = zext i1 %65 to i32
  %67 = or i32 %66, %63
  %68 = icmp ne i32 %67, 0
  %69 = zext i1 %68 to i8
  store i8 %69, ptr %3, align 1
  %70 = call noundef zeroext i1 @_ZL20check_signal_handleri(i32 noundef 3)
  %71 = zext i1 %70 to i32
  %72 = load i8, ptr %3, align 1
  %73 = trunc i8 %72 to i1
  %74 = zext i1 %73 to i32
  %75 = or i32 %74, %71
  %76 = icmp ne i32 %75, 0
  %77 = zext i1 %76 to i8
  store i8 %77, ptr %3, align 1
  br label %78

78:                                               ; preds = %45, %10
  %79 = load i32, ptr @_ZN12PosixSignals9SR_signumE, align 4
  %80 = call noundef zeroext i1 @_ZL20check_signal_handleri(i32 noundef %79)
  %81 = zext i1 %80 to i32
  %82 = load i8, ptr %3, align 1
  %83 = trunc i8 %82 to i1
  %84 = zext i1 %83 to i32
  %85 = or i32 %84, %81
  %86 = icmp ne i32 %85, 0
  %87 = zext i1 %86 to i8
  store i8 %87, ptr %3, align 1
  %88 = load i8, ptr %3, align 1
  %89 = trunc i8 %88 to i1
  br i1 %89, label %90, label %94

90:                                               ; preds = %78
  %91 = load ptr, ptr %2, align 8
  %92 = getelementptr inbounds [2000 x i8], ptr %4, i64 0, i64 0
  call void @_ZN2os21print_signal_handlersEP12outputStreamPcm(ptr noundef %91, ptr noundef %92, i64 noundef 2000)
  %93 = load ptr, ptr %2, align 8
  call void (ptr, ptr, ...) @_ZN12outputStream8print_crEPKcz(ptr noundef nonnull align 8 dereferenceable(56) %93, ptr noundef @.str)
  br label %94

94:                                               ; preds = %90, %78, %9
  ret void
}