; Function Attrs: mustprogress nounwind uwtable
define hidden void @_ZN2os19run_periodic_checksEP12outputStream(ptr noundef %0) local_unnamed_addr #0 align 2 {
  %2 = alloca [2000 x i8], align 16
  %.b = load i1, ptr @_ZL13check_signals, align 1
  br i1 %.b, label %27, label %3

3:                                                ; preds = %1
  %4 = tail call fastcc noundef zeroext i1 @_ZL20check_signal_handleri(i32 noundef 11)
  %5 = tail call fastcc noundef zeroext i1 @_ZL20check_signal_handleri(i32 noundef 4)
  %6 = or i1 %4, %5
  %7 = tail call fastcc noundef zeroext i1 @_ZL20check_signal_handleri(i32 noundef 8)
  %8 = or i1 %6, %7
  %9 = tail call fastcc noundef zeroext i1 @_ZL20check_signal_handleri(i32 noundef 7)
  %10 = or i1 %8, %9
  %11 = load i8, ptr @ReduceSignalUsage, align 1
  %12 = trunc i8 %11 to i1
  br i1 %12, label %22, label %13

13:                                               ; preds = %3
  %14 = tail call fastcc noundef zeroext i1 @_ZL20check_signal_handleri(i32 noundef 1)
  %15 = tail call fastcc noundef zeroext i1 @_ZL20check_signal_handleri(i32 noundef 2)
  %16 = or i1 %14, %15
  %17 = tail call fastcc noundef zeroext i1 @_ZL20check_signal_handleri(i32 noundef 15)
  %18 = or i1 %16, %17
  %19 = tail call fastcc noundef zeroext i1 @_ZL20check_signal_handleri(i32 noundef 3)
  %20 = or i1 %18, %19
  %21 = or i1 %10, %20
  br label %22

22:                                               ; preds = %13, %3
  %.0.in = phi i1 [ %10, %3 ], [ %21, %13 ]
  %23 = load i32, ptr @_ZN12PosixSignals9SR_signumE, align 4
  %24 = tail call fastcc noundef zeroext i1 @_ZL20check_signal_handleri(i32 noundef %23)
  %25 = or i1 %.0.in, %24
  br i1 %25, label %26, label %27

26:                                               ; preds = %22
  call void @_ZN2os21print_signal_handlersEP12outputStreamPcm(ptr noundef %0, ptr noundef nonnull %2, i64 noundef 2000)
  call void (ptr, ptr, ...) @_ZN12outputStream8print_crEPKcz(ptr noundef nonnull align 8 dereferenceable(56) %0, ptr noundef nonnull @.str) #20
  br label %27

27:                                               ; preds = %1, %26, %22
  ret void
}